target datalayout = "e-m:e-p270:32:32-p271:32:32-p272:64:64-i64:64-i128:128-f80:128-n8:16:32:64-S128"
target triple = "x86_64-pc-linux-gnu"

%struct.GCheader = type { i8, i8, i8 }

; Function Attrs: mustprogress uwtable
define internal void @_ZL7freeobjP9lua_StateP8GCObjectP8lua_Page(ptr noundef %0, ptr noundef %1, ptr noundef %2) #0 {
  %4 = alloca ptr, align 8
  %5 = alloca ptr, align 8
  %6 = alloca ptr, align 8
  store ptr %0, ptr %4, align 8
  store ptr %1, ptr %5, align 8
  store ptr %2, ptr %6, align 8
  %7 = load ptr, ptr %5, align 8
  %8 = getelementptr inbounds %struct.GCheader, ptr %7, i32 0, i32 0
  %9 = load i8, ptr %8, align 8
  %10 = zext i8 %9 to i32
  switch i32 %10, label %43 [
    i32 11, label %11
    i32 7, label %15
    i32 12, label %19
    i32 6, label %23
    i32 9, label %27
    i32 5, label %31
    i32 8, label %35
    i32 10, label %39
  ]

11:                                               ; preds = %3
  %12 = load ptr, ptr %4, align 8
  %13 = load ptr, ptr %5, align 8
  %14 = load ptr, ptr %6, align 8
  call void @_Z14luaF_freeprotoP9lua_StateP5ProtoP8lua_Page(ptr noundef %12, ptr noundef %13, ptr noundef %14)
  br label %44

15:                                               ; preds = %3
  %16 = load ptr, ptr %4, align 8
  %17 = load ptr, ptr %5, align 8
  %18 = load ptr, ptr %6, align 8
  call void @_Z16luaF_freeclosureP9lua_StateP7ClosureP8lua_Page(ptr noundef %16, ptr noundef %17, ptr noundef %18)
  br label %44

19:                                               ; preds = %3
  %20 = load ptr, ptr %4, align 8
  %21 = load ptr, ptr %5, align 8
  %22 = load ptr, ptr %6, align 8
  call void @_Z14luaF_freeupvalP9lua_StateP5UpValP8lua_Page(ptr noundef %20, ptr noundef %21, ptr noundef %22)
  br label %44

23:                                               ; preds = %3
  %24 = load ptr, ptr %4, align 8
  %25 = load ptr, ptr %5, align 8
  %26 = load ptr, ptr %6, align 8
  call void @_Z9luaH_freeP9lua_StateP5TableP8lua_Page(ptr noundef %24, ptr noundef %25, ptr noundef %26)
  br label %44

27:                                               ; preds = %3
  %28 = load ptr, ptr %4, align 8
  %29 = load ptr, ptr %5, align 8
  %30 = load ptr, ptr %6, align 8
  call void @_Z15luaE_freethreadP9lua_StateS0_P8lua_Page(ptr noundef %28, ptr noundef %29, ptr noundef %30)
  br label %44

31:                                               ; preds = %3
  %32 = load ptr, ptr %4, align 8
  %33 = load ptr, ptr %5, align 8
  %34 = load ptr, ptr %6, align 8
  call void @_Z9luaS_freeP9lua_StateP7TStringP8lua_Page(ptr noundef %32, ptr noundef %33, ptr noundef %34)
  br label %44

35:                                               ; preds = %3
  %36 = load ptr, ptr %4, align 8
  %37 = load ptr, ptr %5, align 8
  %38 = load ptr, ptr %6, align 8
  call void @_Z14luaU_freeudataP9lua_StateP5UdataP8lua_Page(ptr noundef %36, ptr noundef %37, ptr noundef %38)
  br label %44

39:                                               ; preds = %3
  %40 = load ptr, ptr %4, align 8
  %41 = load ptr, ptr %5, align 8
  %42 = load ptr, ptr %6, align 8
  call void @_Z15luaB_freebufferP9lua_StateP6BufferP8lua_Page(ptr noundef %40, ptr noundef %41, ptr noundef %42)
  br label %44

43:                                               ; preds = %3
  br label %44

44:                                               ; preds = %43, %39, %35, %31, %27, %23, %19, %15, %11
  ret void
}