; Function Attrs: mustprogress uwtable
define internal fastcc void @_ZL7freeobjP9lua_StateP8GCObjectP8lua_Page(ptr noundef %0, ptr noundef %1, ptr noundef %2) unnamed_addr #0 {
  %4 = load i8, ptr %1, align 8
  switch i8 %4, label %13 [
    i8 11, label %5
    i8 7, label %6
    i8 12, label %7
    i8 6, label %8
    i8 9, label %9
    i8 5, label %10
    i8 8, label %11
    i8 10, label %12
  ]

5:                                                ; preds = %3
  tail call void @_Z14luaF_freeprotoP9lua_StateP5ProtoP8lua_Page(ptr noundef %0, ptr noundef nonnull %1, ptr noundef %2)
  br label %13

6:                                                ; preds = %3
  tail call void @_Z16luaF_freeclosureP9lua_StateP7ClosureP8lua_Page(ptr noundef %0, ptr noundef nonnull %1, ptr noundef %2)
  br label %13

7:                                                ; preds = %3
  tail call void @_Z14luaF_freeupvalP9lua_StateP5UpValP8lua_Page(ptr noundef %0, ptr noundef nonnull %1, ptr noundef %2)
  br label %13

8:                                                ; preds = %3
  tail call void @_Z9luaH_freeP9lua_StateP5TableP8lua_Page(ptr noundef %0, ptr noundef nonnull %1, ptr noundef %2)
  br label %13

9:                                                ; preds = %3
  tail call void @_Z15luaE_freethreadP9lua_StateS0_P8lua_Page(ptr noundef %0, ptr noundef nonnull %1, ptr noundef %2)
  br label %13

10:                                               ; preds = %3
  tail call void @_Z9luaS_freeP9lua_StateP7TStringP8lua_Page(ptr noundef %0, ptr noundef nonnull %1, ptr noundef %2)
  br label %13

11:                                               ; preds = %3
  tail call void @_Z14luaU_freeudataP9lua_StateP5UdataP8lua_Page(ptr noundef %0, ptr noundef nonnull %1, ptr noundef %2)
  br label %13

12:                                               ; preds = %3
  tail call void @_Z15luaB_freebufferP9lua_StateP6BufferP8lua_Page(ptr noundef %0, ptr noundef nonnull %1, ptr noundef %2)
  br label %13

13:                                               ; preds = %3, %12, %11, %10, %9, %8, %7, %6, %5
  ret void
}